target datalayout = "e-m:e-p270:32:32-p271:32:32-p272:64:64-i64:64-i128:128-f80:128-n8:16:32:64-S128"
target triple = "x86_64-pc-linux-gnu"

%"class.llvm::SmallVectorBase" = type { ptr, i32, i32 }
%"class.llvm::SmallPtrSetImplBase.base" = type <{ ptr, ptr, i32, i32, i32 }>
%"class.llvm::ilist_node_base" = type { %"class.llvm::ilist_detail::node_base_prevnext" }
%"class.llvm::ilist_detail::node_base_prevnext" = type { ptr, ptr }
%"class.llvm::IRTranslator" = type { %"class.llvm::MachineFunctionPass", ptr, %"class.llvm::IRTranslator::ValueToVRegInfo", %"class.llvm::DenseMap.23", %"class.llvm::SmallVector.26", %"class.llvm::DenseMap.31", %"class.llvm::SwiftErrorValueTracking", %"class.std::unique_ptr", %"class.std::unique_ptr", ptr, ptr, ptr, ptr, i32, %"class.std::unique_ptr.47", ptr, ptr, ptr, ptr, %"class.llvm::FunctionLoweringInfo", i8, i8, %"class.llvm::StackProtectorDescriptor", %"class.std::unique_ptr.118" }
%"class.llvm::MachineFunctionPass" = type { %"class.llvm::FunctionPass.base", %"class.llvm::MachineFunctionProperties", %"class.llvm::MachineFunctionProperties", %"class.llvm::MachineFunctionProperties" }
%"class.llvm::FunctionPass.base" = type { %"class.llvm::Pass.base" }
%"class.llvm::Pass.base" = type <{ ptr, ptr, ptr, i32 }>
%"class.llvm::MachineFunctionProperties" = type { %"class.std::bitset" }
%"class.std::bitset" = type { %"struct.std::_Base_bitset" }
%"struct.std::_Base_bitset" = type { i64 }
%"class.llvm::IRTranslator::ValueToVRegInfo" = type { %"class.llvm::SpecificBumpPtrAllocator", %"class.llvm::SpecificBumpPtrAllocator.16", %"class.llvm::DenseMap.17", %"class.llvm::DenseMap.20" }
%"class.llvm::SpecificBumpPtrAllocator" = type { %"class.llvm::BumpPtrAllocatorImpl" }
%"class.llvm::BumpPtrAllocatorImpl" = type { ptr, ptr, %"class.llvm::SmallVector.6", %"class.llvm::SmallVector.11", i64, i64 }
%"class.llvm::SmallVector.6" = type { %"class.llvm::SmallVectorImpl.7", %"struct.llvm::SmallVectorStorage.10" }
%"class.llvm::SmallVectorImpl.7" = type { %"class.llvm::SmallVectorTemplateBase.8" }
%"class.llvm::SmallVectorTemplateBase.8" = type { %"class.llvm::SmallVectorTemplateCommon.9" }
%"class.llvm::SmallVectorTemplateCommon.9" = type { %"class.llvm::SmallVectorBase" }
%"struct.llvm::SmallVectorStorage.10" = type { [32 x i8] }
%"class.llvm::SmallVector.11" = type { %"class.llvm::SmallVectorImpl.12" }
%"class.llvm::SmallVectorImpl.12" = type { %"class.llvm::SmallVectorTemplateBase.13" }
%"class.llvm::SmallVectorTemplateBase.13" = type { %"class.llvm::SmallVectorTemplateCommon.14" }
%"class.llvm::SmallVectorTemplateCommon.14" = type { %"class.llvm::SmallVectorBase" }
%"class.llvm::SpecificBumpPtrAllocator.16" = type { %"class.llvm::BumpPtrAllocatorImpl" }
%"class.llvm::DenseMap.17" = type <{ ptr, i32, i32, i32, [4 x i8] }>
%"class.llvm::DenseMap.20" = type <{ ptr, i32, i32, i32, [4 x i8] }>
%"class.llvm::DenseMap.23" = type <{ ptr, i32, i32, i32, [4 x i8] }>
%"class.llvm::SmallVector.26" = type { %"class.llvm::SmallVectorImpl.27", %"struct.llvm::SmallVectorStorage.30" }
%"class.llvm::SmallVectorImpl.27" = type { %"class.llvm::SmallVectorTemplateBase.28" }
%"class.llvm::SmallVectorTemplateBase.28" = type { %"class.llvm::SmallVectorTemplateCommon.29" }
%"class.llvm::SmallVectorTemplateCommon.29" = type { %"class.llvm::SmallVectorBase" }
%"struct.llvm::SmallVectorStorage.30" = type { [128 x i8] }
%"class.llvm::DenseMap.31" = type <{ ptr, i32, i32, i32, [4 x i8] }>
%"class.llvm::SwiftErrorValueTracking" = type { ptr, ptr, ptr, ptr, %"class.llvm::DenseMap.34", %"class.llvm::DenseMap.34", %"class.llvm::DenseMap.37", ptr, %"class.llvm::SmallVector.40" }
%"class.llvm::DenseMap.34" = type <{ ptr, i32, i32, i32, [4 x i8] }>
%"class.llvm::DenseMap.37" = type <{ ptr, i32, i32, i32, [4 x i8] }>
%"class.llvm::SmallVector.40" = type { %"class.llvm::SmallVectorImpl.41", %"struct.llvm::SmallVectorStorage.44" }
%"class.llvm::SmallVectorImpl.41" = type { %"class.llvm::SmallVectorTemplateBase.42" }
%"class.llvm::SmallVectorTemplateBase.42" = type { %"class.llvm::SmallVectorTemplateCommon.43" }
%"class.llvm::SmallVectorTemplateCommon.43" = type { %"class.llvm::SmallVectorBase" }
%"struct.llvm::SmallVectorStorage.44" = type { [8 x i8] }
%"class.std::unique_ptr" = type { %"struct.std::__uniq_ptr_data" }
%"struct.std::__uniq_ptr_data" = type { %"class.std::__uniq_ptr_impl" }
%"class.std::__uniq_ptr_impl" = type { %"class.std::tuple" }
%"class.std::tuple" = type { %"struct.std::_Tuple_impl" }
%"struct.std::_Tuple_impl" = type { %"struct.std::_Head_base.46" }
%"struct.std::_Head_base.46" = type { ptr }
%"class.std::unique_ptr.47" = type { %"struct.std::__uniq_ptr_data.48" }
%"struct.std::__uniq_ptr_data.48" = type { %"class.std::__uniq_ptr_impl.49" }
%"class.std::__uniq_ptr_impl.49" = type { %"class.std::tuple.50" }
%"class.std::tuple.50" = type { %"struct.std::_Tuple_impl.51" }
%"struct.std::_Tuple_impl.51" = type { %"struct.std::_Head_base.54" }
%"struct.std::_Head_base.54" = type { ptr }
%"class.llvm::FunctionLoweringInfo" = type { ptr, ptr, ptr, ptr, ptr, ptr, i8, i8, %"class.llvm::Register", %"class.llvm::SmallVector.55", %"class.llvm::DenseMap.60", %"class.llvm::DenseMap.63", %"class.llvm::DenseMap.60", %"class.llvm::DenseMap.66", %"class.llvm::DenseMap.31", %"class.llvm::DenseMap.69", %"class.llvm::SmallVector.72", %"class.llvm::BitVector", %"class.llvm::DenseMap.82", %"class.llvm::DenseSet", %"class.llvm::SmallVector.88", ptr, %"class.llvm::MachineInstrBundleIterator", %"class.llvm::DenseMap.93", %"class.llvm::SmallVector.96", %"class.std::vector.102", i32, i32, i32, i32, %"class.llvm::SmallPtrSet.107", %"class.llvm::SmallPtrSet.110", %"class.llvm::IndexedMap" }
%"class.llvm::Register" = type { i32 }
%"class.llvm::SmallVector.55" = type { %"class.llvm::SmallVectorImpl.56", %"struct.llvm::SmallVectorStorage.59" }
%"class.llvm::SmallVectorImpl.56" = type { %"class.llvm::SmallVectorTemplateBase.57" }
%"class.llvm::SmallVectorTemplateBase.57" = type { %"class.llvm::SmallVectorTemplateCommon.58" }
%"class.llvm::SmallVectorTemplateCommon.58" = type { %"class.llvm::SmallVectorBase" }
%"struct.llvm::SmallVectorStorage.59" = type { [48 x i8] }
%"class.llvm::DenseMap.63" = type <{ ptr, i32, i32, i32, [4 x i8] }>
%"class.llvm::DenseMap.60" = type <{ ptr, i32, i32, i32, [4 x i8] }>
%"class.llvm::DenseMap.66" = type <{ ptr, i32, i32, i32, [4 x i8] }>
%"class.llvm::DenseMap.69" = type <{ ptr, i32, i32, i32, [4 x i8] }>
%"class.llvm::SmallVector.72" = type { %"class.llvm::SmallVectorImpl.73", %"struct.llvm::SmallVectorStorage.76" }
%"class.llvm::SmallVectorImpl.73" = type { %"class.llvm::SmallVectorTemplateBase.74" }
%"class.llvm::SmallVectorTemplateBase.74" = type { %"class.llvm::SmallVectorTemplateCommon.75" }
%"class.llvm::SmallVectorTemplateCommon.75" = type { %"class.llvm::SmallVectorBase" }
%"struct.llvm::SmallVectorStorage.76" = type { [64 x i8] }
%"class.llvm::BitVector" = type <{ %"class.llvm::SmallVector.77", i32, [4 x i8] }>
%"class.llvm::SmallVector.77" = type { %"class.llvm::SmallVectorImpl.78", %"struct.llvm::SmallVectorStorage.81" }
%"class.llvm::SmallVectorImpl.78" = type { %"class.llvm::SmallVectorTemplateBase.79" }
%"class.llvm::SmallVectorTemplateBase.79" = type { %"class.llvm::SmallVectorTemplateCommon.80" }
%"class.llvm::SmallVectorTemplateCommon.80" = type { %"class.llvm::SmallVectorBase" }
%"struct.llvm::SmallVectorStorage.81" = type { [48 x i8] }
%"class.llvm::DenseMap.82" = type <{ ptr, i32, i32, i32, [4 x i8] }>
%"class.llvm::DenseSet" = type { %"class.llvm::detail::DenseSetImpl" }
%"class.llvm::detail::DenseSetImpl" = type { %"class.llvm::DenseMap.85" }
%"class.llvm::DenseMap.85" = type <{ ptr, i32, i32, i32, [4 x i8] }>
%"class.llvm::SmallVector.88" = type { %"class.llvm::SmallVectorImpl.89", %"struct.llvm::SmallVectorStorage.92" }
%"class.llvm::SmallVectorImpl.89" = type { %"class.llvm::SmallVectorTemplateBase.90" }
%"class.llvm::SmallVectorTemplateBase.90" = type { %"class.llvm::SmallVectorTemplateCommon.91" }
%"class.llvm::SmallVectorTemplateCommon.91" = type { %"class.llvm::SmallVectorBase" }
%"struct.llvm::SmallVectorStorage.92" = type { [200 x i8] }
%"class.llvm::MachineInstrBundleIterator" = type { %"class.llvm::ilist_iterator" }
%"class.llvm::ilist_iterator" = type { ptr }
%"class.llvm::DenseMap.93" = type <{ ptr, i32, i32, i32, [4 x i8] }>
%"class.llvm::SmallVector.96" = type { %"class.llvm::SmallVectorImpl.97", %"struct.llvm::SmallVectorStorage.101" }
%"class.llvm::SmallVectorImpl.97" = type { %"class.llvm::SmallVectorTemplateBase.98" }
%"class.llvm::SmallVectorTemplateBase.98" = type { %"class.llvm::SmallVectorTemplateCommon.99" }
%"class.llvm::SmallVectorTemplateCommon.99" = type { %"class.llvm::SmallVectorBase.100" }
%"class.llvm::SmallVectorBase.100" = type { ptr, i64, i64 }
%"struct.llvm::SmallVectorStorage.101" = type { [40 x i8] }
%"class.std::vector.102" = type { %"struct.std::_Vector_base.103" }
%"struct.std::_Vector_base.103" = type { %"struct.std::_Vector_base<std::pair<llvm::MachineInstr *, unsigned int>, std::allocator<std::pair<llvm::MachineInstr *, unsigned int>>>::_Vector_impl" }
%"struct.std::_Vector_base<std::pair<llvm::MachineInstr *, unsigned int>, std::allocator<std::pair<llvm::MachineInstr *, unsigned int>>>::_Vector_impl" = type { %"struct.std::_Vector_base<std::pair<llvm::MachineInstr *, unsigned int>, std::allocator<std::pair<llvm::MachineInstr *, unsigned int>>>::_Vector_impl_data" }
%"struct.std::_Vector_base<std::pair<llvm::MachineInstr *, unsigned int>, std::allocator<std::pair<llvm::MachineInstr *, unsigned int>>>::_Vector_impl_data" = type { ptr, ptr, ptr }
%"class.llvm::SmallPtrSet.107" = type { %"class.llvm::SmallPtrSetImpl.base.109", [8 x ptr] }
%"class.llvm::SmallPtrSetImpl.base.109" = type { %"class.llvm::SmallPtrSetImplBase.base" }
%"class.llvm::SmallPtrSet.110" = type { %"class.llvm::SmallPtrSetImpl.base.112", [8 x ptr] }
%"class.llvm::SmallPtrSetImpl.base.112" = type { %"class.llvm::SmallPtrSetImplBase.base" }
%"class.llvm::IndexedMap" = type <{ %"class.llvm::SmallVector.113", %"struct.llvm::FunctionLoweringInfo::LiveOutInfo", [8 x i8] }>
%"class.llvm::SmallVector.113" = type { %"class.llvm::SmallVectorImpl.114" }
%"class.llvm::SmallVectorImpl.114" = type { %"class.llvm::SmallVectorTemplateBase.115" }
%"class.llvm::SmallVectorTemplateBase.115" = type { %"class.llvm::SmallVectorTemplateCommon.116" }
%"class.llvm::SmallVectorTemplateCommon.116" = type { %"class.llvm::SmallVectorBase" }
%"struct.llvm::FunctionLoweringInfo::LiveOutInfo" = type { i32, [4 x i8], %"struct.llvm::KnownBits" }
%"struct.llvm::KnownBits" = type { %"class.llvm::APInt", %"class.llvm::APInt" }
%"class.llvm::APInt" = type <{ %union.anon, i32, [4 x i8] }>
%union.anon = type { i64 }
%"class.llvm::StackProtectorDescriptor" = type { ptr, ptr, ptr }
%"class.std::unique_ptr.118" = type { %"struct.std::__uniq_ptr_data.119" }
%"struct.std::__uniq_ptr_data.119" = type { %"class.std::__uniq_ptr_impl.120" }
%"class.std::__uniq_ptr_impl.120" = type { %"class.std::tuple.121" }
%"class.std::tuple.121" = type { %"struct.std::_Tuple_impl.122" }
%"struct.std::_Tuple_impl.122" = type { %"struct.std::_Head_base.125" }
%"struct.std::_Head_base.125" = type { ptr }
%"class.llvm::Value" = type { i8, i8, i16, i32, ptr, ptr }
%"class.llvm::ilist_node_impl.339" = type { %"class.llvm::ilist_node_base.340" }
%"class.llvm::ilist_node_base.340" = type { %"class.llvm::ilist_detail::node_base_prevnext.341", %"class.llvm::ilist_detail::node_base_parent.342" }
%"class.llvm::ilist_detail::node_base_prevnext.341" = type { ptr, ptr }
%"class.llvm::ilist_detail::node_base_parent.342" = type { ptr }
%"class.llvm::BasicBlock" = type { %"class.llvm::Value", %"class.llvm::ilist_node_with_parent", i8, i32, %"class.llvm::SymbolTableList.331", ptr }
%"class.llvm::ilist_node_with_parent" = type { %"class.llvm::ilist_node.330" }
%"class.llvm::ilist_node.330" = type { %"class.llvm::ilist_node_impl.320" }
%"class.llvm::ilist_node_impl.320" = type { %"class.llvm::ilist_node_base" }
%"class.llvm::SymbolTableList.331" = type { %"class.llvm::iplist_impl.332" }
%"class.llvm::iplist_impl.332" = type { %"class.llvm::simple_ilist.335" }
%"class.llvm::simple_ilist.335" = type { %"class.llvm::ilist_sentinel.338" }
%"class.llvm::ilist_sentinel.338" = type { %"class.llvm::ilist_node_impl.339" }

; Function Attrs: mustprogress nounwind uwtable
define linkonce_odr hidden noundef ptr @_ZNK4llvm25SmallVectorTemplateCommonIPNS_17MachineBasicBlockEvE5beginEv(ptr noundef nonnull align 8 dereferenceable(16) %0) #1 comdat align 2 {
  %2 = alloca ptr, align 8
  store ptr %0, ptr %2, align 8
  %3 = load ptr, ptr %2, align 8
  %4 = getelementptr inbounds nuw %"class.llvm::SmallVectorBase", ptr %3, i32 0, i32 0
  %5 = load ptr, ptr %4, align 8
  ret ptr %5
}

; Function Attrs: mustprogress nounwind uwtable
define linkonce_odr hidden noundef nonnull align 8 dereferenceable(8) ptr @_ZNK4llvm25SmallVectorTemplateCommonIPNS_17MachineBasicBlockEvEixEm(ptr noundef nonnull align 8 dereferenceable(16) %0, i64 noundef %1) #1 comdat align 2 {
  %3 = alloca ptr, align 8
  %4 = alloca i64, align 8
  store ptr %0, ptr %3, align 8
  store i64 %1, ptr %4, align 8
  %5 = load ptr, ptr %3, align 8
  %6 = call noundef ptr @_ZNK4llvm25SmallVectorTemplateCommonIPNS_17MachineBasicBlockEvE5beginEv(ptr noundef nonnull align 8 dereferenceable(16) %5)
  %7 = load i64, ptr %4, align 8
  %8 = getelementptr inbounds ptr, ptr %6, i64 %7
  ret ptr %8
}

; Function Attrs: mustprogress nounwind uwtable
define linkonce_odr hidden noundef i32 @_ZNK4llvm10BasicBlock9getNumberEv(ptr noundef nonnull align 8 dereferenceable(80) %0) #1 comdat align 2 {
  %2 = alloca ptr, align 8
  store ptr %0, ptr %2, align 8
  %3 = load ptr, ptr %2, align 8
  %4 = getelementptr inbounds nuw %"class.llvm::BasicBlock", ptr %3, i32 0, i32 3
  %5 = load i32, ptr %4, align 4
  ret i32 %5
}

; Function Attrs: mustprogress nounwind uwtable
define linkonce_odr hidden noundef ptr @_ZNK4llvm20FunctionLoweringInfo6getMBBEPKNS_10BasicBlockE(ptr noundef nonnull align 8 dereferenceable(1080) %0, ptr noundef %1) #1 comdat align 2 {
  %3 = alloca ptr, align 8
  %4 = alloca ptr, align 8
  store ptr %0, ptr %3, align 8
  store ptr %1, ptr %4, align 8
  %5 = load ptr, ptr %3, align 8
  %6 = getelementptr inbounds nuw %"class.llvm::FunctionLoweringInfo", ptr %5, i32 0, i32 9
  %7 = load ptr, ptr %4, align 8
  %8 = call noundef i32 @_ZNK4llvm10BasicBlock9getNumberEv(ptr noundef nonnull align 8 dereferenceable(80) %7)
  %9 = zext i32 %8 to i64
  %10 = call noundef nonnull align 8 dereferenceable(8) ptr @_ZNK4llvm25SmallVectorTemplateCommonIPNS_17MachineBasicBlockEvEixEm(ptr noundef nonnull align 8 dereferenceable(16) %6, i64 noundef %9)
  %11 = load ptr, ptr %10, align 8
  ret ptr %11
}

; Function Attrs: mustprogress nounwind uwtable
define dso_local noundef nonnull align 8 dereferenceable(288) ptr @_ZN4llvm12IRTranslator6getMBBERKNS_10BasicBlockE(ptr noundef nonnull align 8 dereferenceable(1848) %0, ptr noundef nonnull align 8 dereferenceable(80) %1) #1 align 2 {
  %3 = alloca ptr, align 8
  %4 = alloca ptr, align 8
  %5 = alloca ptr, align 8
  store ptr %0, ptr %3, align 8
  store ptr %1, ptr %4, align 8
  %6 = load ptr, ptr %3, align 8
  %7 = getelementptr inbounds nuw %"class.llvm::IRTranslator", ptr %6, i32 0, i32 19
  %8 = load ptr, ptr %4, align 8
  %9 = call noundef ptr @_ZNK4llvm20FunctionLoweringInfo6getMBBEPKNS_10BasicBlockE(ptr noundef nonnull align 8 dereferenceable(1080) %7, ptr noundef %8)
  store ptr %9, ptr %5, align 8
  %10 = load ptr, ptr %5, align 8
  ret ptr %10
}