; Function Attrs: mustprogress nofree norecurse nosync nounwind willreturn memory(read, inaccessiblemem: none) uwtable
define dso_local noundef nonnull align 8 dereferenceable(288) ptr @_ZN4llvm12IRTranslator6getMBBERKNS_10BasicBlockE(ptr nocapture noundef nonnull readonly align 8 dereferenceable(1848) %0, ptr nocapture noundef nonnull readonly align 8 dereferenceable(80) %1) local_unnamed_addr #4 align 2 {
  %3 = getelementptr inbounds i8, ptr %0, i64 784
  %4 = getelementptr inbounds nuw i8, ptr %1, i64 44
  %5 = load i32, ptr %4, align 4
  %6 = zext i32 %5 to i64
  %7 = load ptr, ptr %3, align 8
  %8 = getelementptr inbounds ptr, ptr %7, i64 %6
  %9 = load ptr, ptr %8, align 8
  ret ptr %9
}